; Function Attrs: nounwind uwtable
define internal void @disp_event_cb(ptr noundef %0) #0 {
  %2 = tail call i32 @lv_event_get_code(ptr noundef %0) #13
  %3 = tail call ptr @lv_event_get_target(ptr noundef %0) #13
  %cond = icmp eq i32 %2, 56
  br i1 %cond, label %4, label %8

4:                                                ; preds = %1
  %5 = getelementptr inbounds nuw i8, ptr %3, i64 904
  %6 = load ptr, ptr %5, align 8, !tbaa !43
  %.not = icmp eq ptr %6, null
  br i1 %.not, label %8, label %7

7:                                                ; preds = %4
  tail call void @lv_timer_resume(ptr noundef nonnull %6) #13
  br label %8

8:                                                ; preds = %1, %4, %7
  ret void
}